target datalayout = "e-m:e-p270:32:32-p271:32:32-p272:64:64-i64:64-i128:128-f80:128-n8:16:32:64-S128"
target triple = "x86_64-pc-linux-gnu"

%struct.AVRational = type { i32, i32 }
%struct.AVCodecContext = type { ptr, i32, i32, ptr, i32, i32, ptr, ptr, ptr, i64, i32, i32, ptr, i32, %struct.AVRational, %struct.AVRational, %struct.AVRational, i32, i32, i32, i32, i32, %struct.AVRational, i32, i32, i32, i32, i32, i32, i32, i32, i32, i32, i32, ptr, ptr, i32, float, float, float, float, float, float, float, float, float, i32, i32, i32, i32, i32, i32, i32, i32, i32, i32, i32, i32, ptr, ptr, ptr, i32, i32, i32, i32, i32, i32, i32, i32, i32, i32, %struct.AVChannelLayout, i32, i32, i32, i32, i32, i32, i32, i32, ptr, i32, i32, i32, float, float, i32, i32, i32, i32, i32, ptr, i64, i64, float, float, i32, i32, ptr, ptr, i32, i32, i32, i32, i32, ptr, ptr, ptr, ptr, i32, i32, [8 x i64], i32, i32, i32, i32, i32, i32, i32, ptr, ptr, i32, i32, i32, i32, i32, i32, i32, i32, i32, i32, ptr, ptr, i32, i32, ptr, ptr, ptr, ptr, i32, i32, i64, i32, i32, i64, ptr, i64, ptr, i32, ptr, i32 }
%struct.AVChannelLayout = type { i32, i32, %union.anon, ptr }
%union.anon = type { i64 }
%struct.AVCodecInternal = type { i32, i32, i32, ptr, ptr, ptr, ptr, ptr, ptr, ptr, i32, ptr, ptr, ptr, i32, i32, ptr, i32, ptr, ptr, i32, i32 }
%struct.DecodeContext = type { %struct.AVCodecInternal, i32, i32, i32, i32, i64, i64, i64, i64, i64, ptr, i32, i32, i32 }

; Function Attrs: nounwind uwtable
define internal ptr @decode_ctx(ptr noundef %0) #0 {
  %2 = alloca ptr, align 8
  store ptr %0, ptr %2, align 8, !tbaa !31
  %3 = load ptr, ptr %2, align 8, !tbaa !31
  ret ptr %3
}

; Function Attrs: nounwind uwtable
define void @ff_decode_flush_buffers(ptr noundef %0) #0 {
  %2 = alloca ptr, align 8
  %3 = alloca ptr, align 8
  %4 = alloca ptr, align 8
  store ptr %0, ptr %2, align 8, !tbaa !4
  call void @llvm.lifetime.start.p0(i64 8, ptr %3) #11
  %5 = load ptr, ptr %2, align 8, !tbaa !4
  %6 = getelementptr inbounds nuw %struct.AVCodecContext, ptr %5, i32 0, i32 7
  %7 = load ptr, ptr %6, align 8, !tbaa !11
  store ptr %7, ptr %3, align 8, !tbaa !31
  call void @llvm.lifetime.start.p0(i64 8, ptr %4) #11
  %8 = load ptr, ptr %3, align 8, !tbaa !31
  %9 = call ptr @decode_ctx(ptr noundef %8)
  store ptr %9, ptr %4, align 8, !tbaa !32
  %10 = load ptr, ptr %3, align 8, !tbaa !31
  %11 = getelementptr inbounds nuw %struct.AVCodecInternal, ptr %10, i32 0, i32 8
  %12 = load ptr, ptr %11, align 8, !tbaa !239
  call void @av_packet_unref(ptr noundef %12)
  %13 = load ptr, ptr %3, align 8, !tbaa !31
  %14 = getelementptr inbounds nuw %struct.AVCodecInternal, ptr %13, i32 0, i32 6
  %15 = load ptr, ptr %14, align 8, !tbaa !296
  call void @av_packet_unref(ptr noundef %15)
  %16 = load ptr, ptr %4, align 8, !tbaa !32
  %17 = getelementptr inbounds nuw %struct.DecodeContext, ptr %16, i32 0, i32 8
  store i64 -9223372036854775808, ptr %17, align 8, !tbaa !287
  %18 = load ptr, ptr %4, align 8, !tbaa !32
  %19 = getelementptr inbounds nuw %struct.DecodeContext, ptr %18, i32 0, i32 7
  store i64 -9223372036854775808, ptr %19, align 8, !tbaa !288
  %20 = load ptr, ptr %3, align 8, !tbaa !31
  %21 = getelementptr inbounds nuw %struct.AVCodecInternal, ptr %20, i32 0, i32 7
  %22 = load ptr, ptr %21, align 8, !tbaa !49
  %23 = icmp ne ptr %22, null
  br i1 %23, label %24, label %28

24:                                               ; preds = %1
  %25 = load ptr, ptr %3, align 8, !tbaa !31
  %26 = getelementptr inbounds nuw %struct.AVCodecInternal, ptr %25, i32 0, i32 7
  %27 = load ptr, ptr %26, align 8, !tbaa !49
  call void @av_bsf_flush(ptr noundef %27)
  br label %28

28:                                               ; preds = %24, %1
  %29 = load ptr, ptr %4, align 8, !tbaa !32
  %30 = getelementptr inbounds nuw %struct.DecodeContext, ptr %29, i32 0, i32 3
  store i32 0, ptr %30, align 8, !tbaa !321
  %31 = load ptr, ptr %4, align 8, !tbaa !32
  %32 = getelementptr inbounds nuw %struct.DecodeContext, ptr %31, i32 0, i32 4
  store i32 0, ptr %32, align 4, !tbaa !46
  call void @llvm.lifetime.end.p0(i64 8, ptr %4) #11
  call void @llvm.lifetime.end.p0(i64 8, ptr %3) #11
  ret void
}