; Function Attrs: nounwind uwtable
define void @ff_decode_flush_buffers(ptr noundef readonly captures(none) %0) local_unnamed_addr #0 {
  %2 = getelementptr inbounds nuw i8, ptr %0, i64 40
  %3 = load ptr, ptr %2, align 8, !tbaa !4
  %4 = getelementptr inbounds nuw i8, ptr %3, i64 56
  %5 = load ptr, ptr %4, align 8, !tbaa !37
  tail call void @av_packet_unref(ptr noundef %5) #10
  %6 = getelementptr inbounds nuw i8, ptr %3, i64 40
  %7 = load ptr, ptr %6, align 8, !tbaa !67
  tail call void @av_packet_unref(ptr noundef %7) #10
  %8 = getelementptr inbounds nuw i8, ptr %3, i64 192
  store i64 -9223372036854775808, ptr %8, align 8, !tbaa !95
  %9 = getelementptr inbounds nuw i8, ptr %3, i64 184
  store i64 -9223372036854775808, ptr %9, align 8, !tbaa !97
  %10 = getelementptr inbounds nuw i8, ptr %3, i64 48
  %11 = load ptr, ptr %10, align 8, !tbaa !35
  %.not = icmp eq ptr %11, null
  br i1 %.not, label %13, label %12

12:                                               ; preds = %1
  tail call void @av_bsf_flush(ptr noundef nonnull %11) #10
  br label %13

13:                                               ; preds = %12, %1
  %14 = getelementptr inbounds nuw i8, ptr %3, i64 160
  store i32 0, ptr %14, align 8, !tbaa !75
  %15 = getelementptr inbounds nuw i8, ptr %3, i64 164
  store i32 0, ptr %15, align 4, !tbaa !53
  ret void
}